target datalayout = "e-m:e-p270:32:32-p271:32:32-p272:64:64-i64:64-i128:128-f80:128-n8:16:32:64-S128"
target triple = "x86_64-pc-linux-gnu"

@.str.84 = private unnamed_addr constant [11 x i8] c"CV_SUCCESS\00", align 1
@.str.85 = private unnamed_addr constant [16 x i8] c"CV_TSTOP_RETURN\00", align 1
@.str.86 = private unnamed_addr constant [15 x i8] c"CV_ROOT_RETURN\00", align 1
@.str.87 = private unnamed_addr constant [17 x i8] c"CV_TOO_MUCH_WORK\00", align 1
@.str.88 = private unnamed_addr constant [16 x i8] c"CV_TOO_MUCH_ACC\00", align 1
@.str.89 = private unnamed_addr constant [15 x i8] c"CV_ERR_FAILURE\00", align 1
@.str.90 = private unnamed_addr constant [16 x i8] c"CV_CONV_FAILURE\00", align 1
@.str.91 = private unnamed_addr constant [14 x i8] c"CV_LINIT_FAIL\00", align 1
@.str.92 = private unnamed_addr constant [15 x i8] c"CV_LSETUP_FAIL\00", align 1
@.str.93 = private unnamed_addr constant [15 x i8] c"CV_LSOLVE_FAIL\00", align 1
@.str.94 = private unnamed_addr constant [16 x i8] c"CV_RHSFUNC_FAIL\00", align 1
@.str.95 = private unnamed_addr constant [21 x i8] c"CV_FIRST_RHSFUNC_ERR\00", align 1
@.str.96 = private unnamed_addr constant [21 x i8] c"CV_REPTD_RHSFUNC_ERR\00", align 1
@.str.97 = private unnamed_addr constant [21 x i8] c"CV_UNREC_RHSFUNC_ERR\00", align 1
@.str.98 = private unnamed_addr constant [15 x i8] c"CV_RTFUNC_FAIL\00", align 1
@.str.99 = private unnamed_addr constant [12 x i8] c"CV_MEM_FAIL\00", align 1
@.str.100 = private unnamed_addr constant [12 x i8] c"CV_MEM_NULL\00", align 1
@.str.101 = private unnamed_addr constant [13 x i8] c"CV_ILL_INPUT\00", align 1
@.str.102 = private unnamed_addr constant [13 x i8] c"CV_NO_MALLOC\00", align 1
@.str.103 = private unnamed_addr constant [9 x i8] c"CV_BAD_K\00", align 1
@.str.104 = private unnamed_addr constant [9 x i8] c"CV_BAD_T\00", align 1
@.str.105 = private unnamed_addr constant [11 x i8] c"CV_BAD_DKY\00", align 1
@.str.106 = private unnamed_addr constant [11 x i8] c"CV_NO_QUAD\00", align 1
@.str.107 = private unnamed_addr constant [17 x i8] c"CV_QRHSFUNC_FAIL\00", align 1
@.str.108 = private unnamed_addr constant [22 x i8] c"CV_FIRST_QRHSFUNC_ERR\00", align 1
@.str.109 = private unnamed_addr constant [22 x i8] c"CV_REPTD_QRHSFUNC_ERR\00", align 1
@.str.110 = private unnamed_addr constant [22 x i8] c"CV_UNREC_QRHSFUNC_ERR\00", align 1
@.str.111 = private unnamed_addr constant [10 x i8] c"CV_BAD_IS\00", align 1
@.str.112 = private unnamed_addr constant [11 x i8] c"CV_NO_SENS\00", align 1
@.str.113 = private unnamed_addr constant [17 x i8] c"CV_SRHSFUNC_FAIL\00", align 1
@.str.114 = private unnamed_addr constant [22 x i8] c"CV_FIRST_SRHSFUNC_ERR\00", align 1
@.str.115 = private unnamed_addr constant [22 x i8] c"CV_REPTD_SRHSFUNC_ERR\00", align 1
@.str.116 = private unnamed_addr constant [22 x i8] c"CV_UNREC_SRHSFUNC_ERR\00", align 1
@.str.117 = private unnamed_addr constant [13 x i8] c"CV_TOO_CLOSE\00", align 1
@.str.118 = private unnamed_addr constant [10 x i8] c"CV_NO_ADJ\00", align 1
@.str.119 = private unnamed_addr constant [10 x i8] c"CV_NO_FWD\00", align 1
@.str.120 = private unnamed_addr constant [10 x i8] c"CV_NO_BCK\00", align 1
@.str.121 = private unnamed_addr constant [11 x i8] c"CV_BAD_TB0\00", align 1
@.str.122 = private unnamed_addr constant [15 x i8] c"CV_REIFWD_FAIL\00", align 1
@.str.123 = private unnamed_addr constant [12 x i8] c"CV_FWD_FAIL\00", align 1
@.str.124 = private unnamed_addr constant [13 x i8] c"CV_GETY_BADT\00", align 1
@.str.125 = private unnamed_addr constant [5 x i8] c"NONE\00", align 1

; Function Attrs: nounwind uwtable
define ptr @CVodeGetReturnFlagName(i64 noundef %0) #0 {
  %2 = alloca i64, align 8
  %3 = alloca ptr, align 8
  store i64 %0, ptr %2, align 8, !tbaa !31
  call void @llvm.lifetime.start.p0(i64 8, ptr %3) #5
  %4 = call noalias ptr @malloc(i64 noundef 24) #6
  store ptr %4, ptr %3, align 8, !tbaa !117
  %5 = load i64, ptr %2, align 8, !tbaa !31
  switch i64 %5, label %129 [
    i64 0, label %6
    i64 1, label %9
    i64 2, label %12
    i64 -1, label %15
    i64 -2, label %18
    i64 -3, label %21
    i64 -4, label %24
    i64 -5, label %27
    i64 -6, label %30
    i64 -7, label %33
    i64 -8, label %36
    i64 -9, label %39
    i64 -10, label %42
    i64 -11, label %45
    i64 -12, label %48
    i64 -20, label %51
    i64 -21, label %54
    i64 -22, label %57
    i64 -23, label %60
    i64 -24, label %63
    i64 -25, label %66
    i64 -26, label %69
    i64 -30, label %72
    i64 -31, label %75
    i64 -32, label %78
    i64 -33, label %81
    i64 -34, label %84
    i64 -45, label %87
    i64 -40, label %90
    i64 -41, label %93
    i64 -42, label %96
    i64 -43, label %99
    i64 -44, label %102
    i64 -27, label %105
    i64 -101, label %108
    i64 -102, label %111
    i64 -103, label %114
    i64 -104, label %117
    i64 -105, label %120
    i64 -106, label %123
    i64 -107, label %126
  ]

6:                                                ; preds = %1
  %7 = load ptr, ptr %3, align 8, !tbaa !117
  %8 = call i32 (ptr, ptr, ...) @sprintf(ptr noundef %7, ptr noundef @.str.84) #5
  br label %132

9:                                                ; preds = %1
  %10 = load ptr, ptr %3, align 8, !tbaa !117
  %11 = call i32 (ptr, ptr, ...) @sprintf(ptr noundef %10, ptr noundef @.str.85) #5
  br label %132

12:                                               ; preds = %1
  %13 = load ptr, ptr %3, align 8, !tbaa !117
  %14 = call i32 (ptr, ptr, ...) @sprintf(ptr noundef %13, ptr noundef @.str.86) #5
  br label %132

15:                                               ; preds = %1
  %16 = load ptr, ptr %3, align 8, !tbaa !117
  %17 = call i32 (ptr, ptr, ...) @sprintf(ptr noundef %16, ptr noundef @.str.87) #5
  br label %132

18:                                               ; preds = %1
  %19 = load ptr, ptr %3, align 8, !tbaa !117
  %20 = call i32 (ptr, ptr, ...) @sprintf(ptr noundef %19, ptr noundef @.str.88) #5
  br label %132

21:                                               ; preds = %1
  %22 = load ptr, ptr %3, align 8, !tbaa !117
  %23 = call i32 (ptr, ptr, ...) @sprintf(ptr noundef %22, ptr noundef @.str.89) #5
  br label %132

24:                                               ; preds = %1
  %25 = load ptr, ptr %3, align 8, !tbaa !117
  %26 = call i32 (ptr, ptr, ...) @sprintf(ptr noundef %25, ptr noundef @.str.90) #5
  br label %132

27:                                               ; preds = %1
  %28 = load ptr, ptr %3, align 8, !tbaa !117
  %29 = call i32 (ptr, ptr, ...) @sprintf(ptr noundef %28, ptr noundef @.str.91) #5
  br label %132

30:                                               ; preds = %1
  %31 = load ptr, ptr %3, align 8, !tbaa !117
  %32 = call i32 (ptr, ptr, ...) @sprintf(ptr noundef %31, ptr noundef @.str.92) #5
  br label %132

33:                                               ; preds = %1
  %34 = load ptr, ptr %3, align 8, !tbaa !117
  %35 = call i32 (ptr, ptr, ...) @sprintf(ptr noundef %34, ptr noundef @.str.93) #5
  br label %132

36:                                               ; preds = %1
  %37 = load ptr, ptr %3, align 8, !tbaa !117
  %38 = call i32 (ptr, ptr, ...) @sprintf(ptr noundef %37, ptr noundef @.str.94) #5
  br label %132

39:                                               ; preds = %1
  %40 = load ptr, ptr %3, align 8, !tbaa !117
  %41 = call i32 (ptr, ptr, ...) @sprintf(ptr noundef %40, ptr noundef @.str.95) #5
  br label %132

42:                                               ; preds = %1
  %43 = load ptr, ptr %3, align 8, !tbaa !117
  %44 = call i32 (ptr, ptr, ...) @sprintf(ptr noundef %43, ptr noundef @.str.96) #5
  br label %132

45:                                               ; preds = %1
  %46 = load ptr, ptr %3, align 8, !tbaa !117
  %47 = call i32 (ptr, ptr, ...) @sprintf(ptr noundef %46, ptr noundef @.str.97) #5
  br label %132

48:                                               ; preds = %1
  %49 = load ptr, ptr %3, align 8, !tbaa !117
  %50 = call i32 (ptr, ptr, ...) @sprintf(ptr noundef %49, ptr noundef @.str.98) #5
  br label %132

51:                                               ; preds = %1
  %52 = load ptr, ptr %3, align 8, !tbaa !117
  %53 = call i32 (ptr, ptr, ...) @sprintf(ptr noundef %52, ptr noundef @.str.99) #5
  br label %132

54:                                               ; preds = %1
  %55 = load ptr, ptr %3, align 8, !tbaa !117
  %56 = call i32 (ptr, ptr, ...) @sprintf(ptr noundef %55, ptr noundef @.str.100) #5
  br label %132

57:                                               ; preds = %1
  %58 = load ptr, ptr %3, align 8, !tbaa !117
  %59 = call i32 (ptr, ptr, ...) @sprintf(ptr noundef %58, ptr noundef @.str.101) #5
  br label %132

60:                                               ; preds = %1
  %61 = load ptr, ptr %3, align 8, !tbaa !117
  %62 = call i32 (ptr, ptr, ...) @sprintf(ptr noundef %61, ptr noundef @.str.102) #5
  br label %132

63:                                               ; preds = %1
  %64 = load ptr, ptr %3, align 8, !tbaa !117
  %65 = call i32 (ptr, ptr, ...) @sprintf(ptr noundef %64, ptr noundef @.str.103) #5
  br label %132

66:                                               ; preds = %1
  %67 = load ptr, ptr %3, align 8, !tbaa !117
  %68 = call i32 (ptr, ptr, ...) @sprintf(ptr noundef %67, ptr noundef @.str.104) #5
  br label %132

69:                                               ; preds = %1
  %70 = load ptr, ptr %3, align 8, !tbaa !117
  %71 = call i32 (ptr, ptr, ...) @sprintf(ptr noundef %70, ptr noundef @.str.105) #5
  br label %132

72:                                               ; preds = %1
  %73 = load ptr, ptr %3, align 8, !tbaa !117
  %74 = call i32 (ptr, ptr, ...) @sprintf(ptr noundef %73, ptr noundef @.str.106) #5
  br label %132

75:                                               ; preds = %1
  %76 = load ptr, ptr %3, align 8, !tbaa !117
  %77 = call i32 (ptr, ptr, ...) @sprintf(ptr noundef %76, ptr noundef @.str.107) #5
  br label %132

78:                                               ; preds = %1
  %79 = load ptr, ptr %3, align 8, !tbaa !117
  %80 = call i32 (ptr, ptr, ...) @sprintf(ptr noundef %79, ptr noundef @.str.108) #5
  br label %132

81:                                               ; preds = %1
  %82 = load ptr, ptr %3, align 8, !tbaa !117
  %83 = call i32 (ptr, ptr, ...) @sprintf(ptr noundef %82, ptr noundef @.str.109) #5
  br label %132

84:                                               ; preds = %1
  %85 = load ptr, ptr %3, align 8, !tbaa !117
  %86 = call i32 (ptr, ptr, ...) @sprintf(ptr noundef %85, ptr noundef @.str.110) #5
  br label %132

87:                                               ; preds = %1
  %88 = load ptr, ptr %3, align 8, !tbaa !117
  %89 = call i32 (ptr, ptr, ...) @sprintf(ptr noundef %88, ptr noundef @.str.111) #5
  br label %132

90:                                               ; preds = %1
  %91 = load ptr, ptr %3, align 8, !tbaa !117
  %92 = call i32 (ptr, ptr, ...) @sprintf(ptr noundef %91, ptr noundef @.str.112) #5
  br label %132

93:                                               ; preds = %1
  %94 = load ptr, ptr %3, align 8, !tbaa !117
  %95 = call i32 (ptr, ptr, ...) @sprintf(ptr noundef %94, ptr noundef @.str.113) #5
  br label %132

96:                                               ; preds = %1
  %97 = load ptr, ptr %3, align 8, !tbaa !117
  %98 = call i32 (ptr, ptr, ...) @sprintf(ptr noundef %97, ptr noundef @.str.114) #5
  br label %132

99:                                               ; preds = %1
  %100 = load ptr, ptr %3, align 8, !tbaa !117
  %101 = call i32 (ptr, ptr, ...) @sprintf(ptr noundef %100, ptr noundef @.str.115) #5
  br label %132

102:                                              ; preds = %1
  %103 = load ptr, ptr %3, align 8, !tbaa !117
  %104 = call i32 (ptr, ptr, ...) @sprintf(ptr noundef %103, ptr noundef @.str.116) #5
  br label %132

105:                                              ; preds = %1
  %106 = load ptr, ptr %3, align 8, !tbaa !117
  %107 = call i32 (ptr, ptr, ...) @sprintf(ptr noundef %106, ptr noundef @.str.117) #5
  br label %132

108:                                              ; preds = %1
  %109 = load ptr, ptr %3, align 8, !tbaa !117
  %110 = call i32 (ptr, ptr, ...) @sprintf(ptr noundef %109, ptr noundef @.str.118) #5
  br label %132

111:                                              ; preds = %1
  %112 = load ptr, ptr %3, align 8, !tbaa !117
  %113 = call i32 (ptr, ptr, ...) @sprintf(ptr noundef %112, ptr noundef @.str.119) #5
  br label %132

114:                                              ; preds = %1
  %115 = load ptr, ptr %3, align 8, !tbaa !117
  %116 = call i32 (ptr, ptr, ...) @sprintf(ptr noundef %115, ptr noundef @.str.120) #5
  br label %132

117:                                              ; preds = %1
  %118 = load ptr, ptr %3, align 8, !tbaa !117
  %119 = call i32 (ptr, ptr, ...) @sprintf(ptr noundef %118, ptr noundef @.str.121) #5
  br label %132

120:                                              ; preds = %1
  %121 = load ptr, ptr %3, align 8, !tbaa !117
  %122 = call i32 (ptr, ptr, ...) @sprintf(ptr noundef %121, ptr noundef @.str.122) #5
  br label %132

123:                                              ; preds = %1
  %124 = load ptr, ptr %3, align 8, !tbaa !117
  %125 = call i32 (ptr, ptr, ...) @sprintf(ptr noundef %124, ptr noundef @.str.123) #5
  br label %132

126:                                              ; preds = %1
  %127 = load ptr, ptr %3, align 8, !tbaa !117
  %128 = call i32 (ptr, ptr, ...) @sprintf(ptr noundef %127, ptr noundef @.str.124) #5
  br label %132

129:                                              ; preds = %1
  %130 = load ptr, ptr %3, align 8, !tbaa !117
  %131 = call i32 (ptr, ptr, ...) @sprintf(ptr noundef %130, ptr noundef @.str.125) #5
  br label %132

132:                                              ; preds = %129, %126, %123, %120, %117, %114, %111, %108, %105, %102, %99, %96, %93, %90, %87, %84, %81, %78, %75, %72, %69, %66, %63, %60, %57, %54, %51, %48, %45, %42, %39, %36, %33, %30, %27, %24, %21, %18, %15, %12, %9, %6
  %133 = load ptr, ptr %3, align 8, !tbaa !117
  call void @llvm.lifetime.end.p0(i64 8, ptr %3) #5
  ret ptr %133
}