; Function Attrs: mustprogress nofree nounwind willreturn memory(readwrite, argmem: none) uwtable
define noalias noundef ptr @CVodeGetReturnFlagName(i64 noundef %0) local_unnamed_addr #2 {
  %2 = tail call noalias dereferenceable_or_null(24) ptr @malloc(i64 noundef 24) #7
  switch i64 %0, label %44 [
    i64 0, label %3
    i64 1, label %4
    i64 2, label %5
    i64 -1, label %6
    i64 -2, label %7
    i64 -3, label %8
    i64 -4, label %9
    i64 -5, label %10
    i64 -6, label %11
    i64 -7, label %12
    i64 -8, label %13
    i64 -9, label %14
    i64 -10, label %15
    i64 -11, label %16
    i64 -12, label %17
    i64 -20, label %18
    i64 -21, label %19
    i64 -22, label %20
    i64 -23, label %21
    i64 -24, label %22
    i64 -25, label %23
    i64 -26, label %24
    i64 -30, label %25
    i64 -31, label %26
    i64 -32, label %27
    i64 -33, label %28
    i64 -34, label %29
    i64 -45, label %30
    i64 -40, label %31
    i64 -41, label %32
    i64 -42, label %33
    i64 -43, label %34
    i64 -44, label %35
    i64 -27, label %36
    i64 -101, label %37
    i64 -102, label %38
    i64 -103, label %39
    i64 -104, label %40
    i64 -105, label %41
    i64 -106, label %42
    i64 -107, label %43
  ]

3:                                                ; preds = %1
  tail call void @llvm.memcpy.p0.p0.i64(ptr noundef nonnull align 1 dereferenceable(11) %2, ptr noundef nonnull align 1 dereferenceable(11) @.str.84, i64 11, i1 false)
  br label %45

4:                                                ; preds = %1
  tail call void @llvm.memcpy.p0.p0.i64(ptr noundef nonnull align 1 dereferenceable(16) %2, ptr noundef nonnull align 1 dereferenceable(16) @.str.85, i64 16, i1 false)
  br label %45

5:                                                ; preds = %1
  tail call void @llvm.memcpy.p0.p0.i64(ptr noundef nonnull align 1 dereferenceable(15) %2, ptr noundef nonnull align 1 dereferenceable(15) @.str.86, i64 15, i1 false)
  br label %45

6:                                                ; preds = %1
  tail call void @llvm.memcpy.p0.p0.i64(ptr noundef nonnull align 1 dereferenceable(17) %2, ptr noundef nonnull align 1 dereferenceable(17) @.str.87, i64 17, i1 false)
  br label %45

7:                                                ; preds = %1
  tail call void @llvm.memcpy.p0.p0.i64(ptr noundef nonnull align 1 dereferenceable(16) %2, ptr noundef nonnull align 1 dereferenceable(16) @.str.88, i64 16, i1 false)
  br label %45

8:                                                ; preds = %1
  tail call void @llvm.memcpy.p0.p0.i64(ptr noundef nonnull align 1 dereferenceable(15) %2, ptr noundef nonnull align 1 dereferenceable(15) @.str.89, i64 15, i1 false)
  br label %45

9:                                                ; preds = %1
  tail call void @llvm.memcpy.p0.p0.i64(ptr noundef nonnull align 1 dereferenceable(16) %2, ptr noundef nonnull align 1 dereferenceable(16) @.str.90, i64 16, i1 false)
  br label %45

10:                                               ; preds = %1
  tail call void @llvm.memcpy.p0.p0.i64(ptr noundef nonnull align 1 dereferenceable(14) %2, ptr noundef nonnull align 1 dereferenceable(14) @.str.91, i64 14, i1 false)
  br label %45

11:                                               ; preds = %1
  tail call void @llvm.memcpy.p0.p0.i64(ptr noundef nonnull align 1 dereferenceable(15) %2, ptr noundef nonnull align 1 dereferenceable(15) @.str.92, i64 15, i1 false)
  br label %45

12:                                               ; preds = %1
  tail call void @llvm.memcpy.p0.p0.i64(ptr noundef nonnull align 1 dereferenceable(15) %2, ptr noundef nonnull align 1 dereferenceable(15) @.str.93, i64 15, i1 false)
  br label %45

13:                                               ; preds = %1
  tail call void @llvm.memcpy.p0.p0.i64(ptr noundef nonnull align 1 dereferenceable(16) %2, ptr noundef nonnull align 1 dereferenceable(16) @.str.94, i64 16, i1 false)
  br label %45

14:                                               ; preds = %1
  tail call void @llvm.memcpy.p0.p0.i64(ptr noundef nonnull align 1 dereferenceable(21) %2, ptr noundef nonnull align 1 dereferenceable(21) @.str.95, i64 21, i1 false)
  br label %45

15:                                               ; preds = %1
  tail call void @llvm.memcpy.p0.p0.i64(ptr noundef nonnull align 1 dereferenceable(21) %2, ptr noundef nonnull align 1 dereferenceable(21) @.str.96, i64 21, i1 false)
  br label %45

16:                                               ; preds = %1
  tail call void @llvm.memcpy.p0.p0.i64(ptr noundef nonnull align 1 dereferenceable(21) %2, ptr noundef nonnull align 1 dereferenceable(21) @.str.97, i64 21, i1 false)
  br label %45

17:                                               ; preds = %1
  tail call void @llvm.memcpy.p0.p0.i64(ptr noundef nonnull align 1 dereferenceable(15) %2, ptr noundef nonnull align 1 dereferenceable(15) @.str.98, i64 15, i1 false)
  br label %45

18:                                               ; preds = %1
  tail call void @llvm.memcpy.p0.p0.i64(ptr noundef nonnull align 1 dereferenceable(12) %2, ptr noundef nonnull align 1 dereferenceable(12) @.str.99, i64 12, i1 false)
  br label %45

19:                                               ; preds = %1
  tail call void @llvm.memcpy.p0.p0.i64(ptr noundef nonnull align 1 dereferenceable(12) %2, ptr noundef nonnull align 1 dereferenceable(12) @.str.100, i64 12, i1 false)
  br label %45

20:                                               ; preds = %1
  tail call void @llvm.memcpy.p0.p0.i64(ptr noundef nonnull align 1 dereferenceable(13) %2, ptr noundef nonnull align 1 dereferenceable(13) @.str.101, i64 13, i1 false)
  br label %45

21:                                               ; preds = %1
  tail call void @llvm.memcpy.p0.p0.i64(ptr noundef nonnull align 1 dereferenceable(13) %2, ptr noundef nonnull align 1 dereferenceable(13) @.str.102, i64 13, i1 false)
  br label %45

22:                                               ; preds = %1
  tail call void @llvm.memcpy.p0.p0.i64(ptr noundef nonnull align 1 dereferenceable(9) %2, ptr noundef nonnull align 1 dereferenceable(9) @.str.103, i64 9, i1 false)
  br label %45

23:                                               ; preds = %1
  tail call void @llvm.memcpy.p0.p0.i64(ptr noundef nonnull align 1 dereferenceable(9) %2, ptr noundef nonnull align 1 dereferenceable(9) @.str.104, i64 9, i1 false)
  br label %45

24:                                               ; preds = %1
  tail call void @llvm.memcpy.p0.p0.i64(ptr noundef nonnull align 1 dereferenceable(11) %2, ptr noundef nonnull align 1 dereferenceable(11) @.str.105, i64 11, i1 false)
  br label %45

25:                                               ; preds = %1
  tail call void @llvm.memcpy.p0.p0.i64(ptr noundef nonnull align 1 dereferenceable(11) %2, ptr noundef nonnull align 1 dereferenceable(11) @.str.106, i64 11, i1 false)
  br label %45

26:                                               ; preds = %1
  tail call void @llvm.memcpy.p0.p0.i64(ptr noundef nonnull align 1 dereferenceable(17) %2, ptr noundef nonnull align 1 dereferenceable(17) @.str.107, i64 17, i1 false)
  br label %45

27:                                               ; preds = %1
  tail call void @llvm.memcpy.p0.p0.i64(ptr noundef nonnull align 1 dereferenceable(22) %2, ptr noundef nonnull align 1 dereferenceable(22) @.str.108, i64 22, i1 false)
  br label %45

28:                                               ; preds = %1
  tail call void @llvm.memcpy.p0.p0.i64(ptr noundef nonnull align 1 dereferenceable(22) %2, ptr noundef nonnull align 1 dereferenceable(22) @.str.109, i64 22, i1 false)
  br label %45

29:                                               ; preds = %1
  tail call void @llvm.memcpy.p0.p0.i64(ptr noundef nonnull align 1 dereferenceable(22) %2, ptr noundef nonnull align 1 dereferenceable(22) @.str.110, i64 22, i1 false)
  br label %45

30:                                               ; preds = %1
  tail call void @llvm.memcpy.p0.p0.i64(ptr noundef nonnull align 1 dereferenceable(10) %2, ptr noundef nonnull align 1 dereferenceable(10) @.str.111, i64 10, i1 false)
  br label %45

31:                                               ; preds = %1
  tail call void @llvm.memcpy.p0.p0.i64(ptr noundef nonnull align 1 dereferenceable(11) %2, ptr noundef nonnull align 1 dereferenceable(11) @.str.112, i64 11, i1 false)
  br label %45

32:                                               ; preds = %1
  tail call void @llvm.memcpy.p0.p0.i64(ptr noundef nonnull align 1 dereferenceable(17) %2, ptr noundef nonnull align 1 dereferenceable(17) @.str.113, i64 17, i1 false)
  br label %45

33:                                               ; preds = %1
  tail call void @llvm.memcpy.p0.p0.i64(ptr noundef nonnull align 1 dereferenceable(22) %2, ptr noundef nonnull align 1 dereferenceable(22) @.str.114, i64 22, i1 false)
  br label %45

34:                                               ; preds = %1
  tail call void @llvm.memcpy.p0.p0.i64(ptr noundef nonnull align 1 dereferenceable(22) %2, ptr noundef nonnull align 1 dereferenceable(22) @.str.115, i64 22, i1 false)
  br label %45

35:                                               ; preds = %1
  tail call void @llvm.memcpy.p0.p0.i64(ptr noundef nonnull align 1 dereferenceable(22) %2, ptr noundef nonnull align 1 dereferenceable(22) @.str.116, i64 22, i1 false)
  br label %45

36:                                               ; preds = %1
  tail call void @llvm.memcpy.p0.p0.i64(ptr noundef nonnull align 1 dereferenceable(13) %2, ptr noundef nonnull align 1 dereferenceable(13) @.str.117, i64 13, i1 false)
  br label %45

37:                                               ; preds = %1
  tail call void @llvm.memcpy.p0.p0.i64(ptr noundef nonnull align 1 dereferenceable(10) %2, ptr noundef nonnull align 1 dereferenceable(10) @.str.118, i64 10, i1 false)
  br label %45

38:                                               ; preds = %1
  tail call void @llvm.memcpy.p0.p0.i64(ptr noundef nonnull align 1 dereferenceable(10) %2, ptr noundef nonnull align 1 dereferenceable(10) @.str.119, i64 10, i1 false)
  br label %45

39:                                               ; preds = %1
  tail call void @llvm.memcpy.p0.p0.i64(ptr noundef nonnull align 1 dereferenceable(10) %2, ptr noundef nonnull align 1 dereferenceable(10) @.str.120, i64 10, i1 false)
  br label %45

40:                                               ; preds = %1
  tail call void @llvm.memcpy.p0.p0.i64(ptr noundef nonnull align 1 dereferenceable(11) %2, ptr noundef nonnull align 1 dereferenceable(11) @.str.121, i64 11, i1 false)
  br label %45

41:                                               ; preds = %1
  tail call void @llvm.memcpy.p0.p0.i64(ptr noundef nonnull align 1 dereferenceable(15) %2, ptr noundef nonnull align 1 dereferenceable(15) @.str.122, i64 15, i1 false)
  br label %45

42:                                               ; preds = %1
  tail call void @llvm.memcpy.p0.p0.i64(ptr noundef nonnull align 1 dereferenceable(12) %2, ptr noundef nonnull align 1 dereferenceable(12) @.str.123, i64 12, i1 false)
  br label %45

43:                                               ; preds = %1
  tail call void @llvm.memcpy.p0.p0.i64(ptr noundef nonnull align 1 dereferenceable(13) %2, ptr noundef nonnull align 1 dereferenceable(13) @.str.124, i64 13, i1 false)
  br label %45

44:                                               ; preds = %1
  tail call void @llvm.memcpy.p0.p0.i64(ptr noundef nonnull align 1 dereferenceable(5) %2, ptr noundef nonnull align 1 dereferenceable(5) @.str.125, i64 5, i1 false)
  br label %45

45:                                               ; preds = %44, %43, %42, %41, %40, %39, %38, %37, %36, %35, %34, %33, %32, %31, %30, %29, %28, %27, %26, %25, %24, %23, %22, %21, %20, %19, %18, %17, %16, %15, %14, %13, %12, %11, %10, %9, %8, %7, %6, %5, %4, %3
  ret ptr %2
}